target datalayout = "e-m:e-p270:32:32-p271:32:32-p272:64:64-i64:64-i128:128-f80:128-n8:16:32:64-S128"
target triple = "x86_64-pc-linux-gnu"

%struct.OSSL_HPKE_SUITE = type { i16, i16, i16 }

@testctx = internal global ptr null, align 8
@.str.31 = private unnamed_addr constant [28 x i8] c"../openssl/test/hpke_test.c\00", align 1
@.str.67 = private unnamed_addr constant [4 x i8] c"pub\00", align 1
@__const.test_hpke_one_ikm_gen.hpke_suite = private unnamed_addr constant %struct.OSSL_HPKE_SUITE { i16 32, i16 1, i16 1 }, align 2
@.str.187 = private unnamed_addr constant [78 x i8] c"OSSL_HPKE_keygen(hpke_suite, lpub, &lpublen, &sk, ikm, ikmlen, testctx, NULL)\00", align 1
@.str.188 = private unnamed_addr constant [3 x i8] c"sk\00", align 1
@.str.189 = private unnamed_addr constant [5 x i8] c"lpub\00", align 1

; Function Attrs: nounwind uwtable
define internal i32 @test_hpke_one_ikm_gen(i16 noundef zeroext %0, ptr noundef %1, i64 noundef %2, ptr noundef %3, i64 noundef %4) #0 {
  %6 = alloca i32, align 4
  %7 = alloca i16, align 2
  %8 = alloca ptr, align 8
  %9 = alloca i64, align 8
  %10 = alloca ptr, align 8
  %11 = alloca i64, align 8
  %12 = alloca %struct.OSSL_HPKE_SUITE, align 2
  %13 = alloca [512 x i8], align 16
  %14 = alloca i64, align 8
  %15 = alloca ptr, align 8
  %16 = alloca i48, align 8
  %17 = alloca i32, align 4
  store i16 %0, ptr %7, align 2, !tbaa !22
  store ptr %1, ptr %8, align 8, !tbaa !17
  store i64 %2, ptr %9, align 8, !tbaa !13
  store ptr %3, ptr %10, align 8, !tbaa !17
  store i64 %4, ptr %11, align 8, !tbaa !13
  call void @llvm.lifetime.start.p0(i64 6, ptr %12) #7
  call void @llvm.memcpy.p0.p0.i64(ptr align 2 %12, ptr align 2 @__const.test_hpke_one_ikm_gen.hpke_suite, i64 6, i1 false)
  call void @llvm.lifetime.start.p0(i64 512, ptr %13) #7
  call void @llvm.lifetime.start.p0(i64 8, ptr %14) #7
  store i64 512, ptr %14, align 8, !tbaa !13
  call void @llvm.lifetime.start.p0(i64 8, ptr %15) #7
  store ptr null, ptr %15, align 8, !tbaa !10
  %18 = load i16, ptr %7, align 2, !tbaa !22
  %19 = getelementptr inbounds nuw %struct.OSSL_HPKE_SUITE, ptr %12, i32 0, i32 0
  store i16 %18, ptr %19, align 2, !tbaa !24
  %20 = getelementptr inbounds [512 x i8], ptr %13, i64 0, i64 0
  %21 = load ptr, ptr %8, align 8, !tbaa !17
  %22 = load i64, ptr %9, align 8, !tbaa !13
  %23 = load ptr, ptr @testctx, align 8, !tbaa !19
  call void @llvm.memcpy.p0.p0.i64(ptr align 8 %16, ptr align 2 %12, i64 6, i1 false)
  %24 = load i48, ptr %16, align 8
  %25 = call i32 @OSSL_HPKE_keygen(i48 %24, ptr noundef %20, ptr noundef %14, ptr noundef %15, ptr noundef %21, i64 noundef %22, ptr noundef %23, ptr noundef null)
  %26 = icmp ne i32 %25, 0
  %27 = zext i1 %26 to i32
  %28 = call i32 @test_true(ptr noundef @.str.31, i32 noundef 1743, ptr noundef @.str.187, i32 noundef %27)
  %29 = icmp ne i32 %28, 0
  br i1 %29, label %31, label %30

30:                                               ; preds = %5
  store i32 0, ptr %6, align 4
  store i32 1, ptr %17, align 4
  br label %46

31:                                               ; preds = %5
  %32 = load ptr, ptr %15, align 8, !tbaa !10
  %33 = call i32 @test_ptr(ptr noundef @.str.31, i32 noundef 1745, ptr noundef @.str.188, ptr noundef %32)
  %34 = icmp ne i32 %33, 0
  br i1 %34, label %36, label %35

35:                                               ; preds = %31
  store i32 0, ptr %6, align 4
  store i32 1, ptr %17, align 4
  br label %46

36:                                               ; preds = %31
  %37 = load ptr, ptr %15, align 8, !tbaa !10
  call void @EVP_PKEY_free(ptr noundef %37)
  %38 = load ptr, ptr %10, align 8, !tbaa !17
  %39 = load i64, ptr %11, align 8, !tbaa !13
  %40 = getelementptr inbounds [512 x i8], ptr %13, i64 0, i64 0
  %41 = load i64, ptr %14, align 8, !tbaa !13
  %42 = call i32 @test_mem_eq(ptr noundef @.str.31, i32 noundef 1748, ptr noundef @.str.67, ptr noundef @.str.189, ptr noundef %38, i64 noundef %39, ptr noundef %40, i64 noundef %41)
  %43 = icmp ne i32 %42, 0
  br i1 %43, label %45, label %44

44:                                               ; preds = %36
  store i32 0, ptr %6, align 4
  store i32 1, ptr %17, align 4
  br label %46

45:                                               ; preds = %36
  store i32 1, ptr %6, align 4
  store i32 1, ptr %17, align 4
  br label %46

46:                                               ; preds = %45, %44, %35, %30
  call void @llvm.lifetime.end.p0(i64 8, ptr %15) #7
  call void @llvm.lifetime.end.p0(i64 8, ptr %14) #7
  call void @llvm.lifetime.end.p0(i64 512, ptr %13) #7
  call void @llvm.lifetime.end.p0(i64 6, ptr %12) #7
  %47 = load i32, ptr %6, align 4
  ret i32 %47
}