; Function Attrs: nounwind uwtable
define internal fastcc range(i32 0, 2) i32 @test_hpke_one_ikm_gen(i16 noundef zeroext range(i16 16, 33) %0, ptr noundef %1, i64 noundef range(i64 32, 67) %2, ptr noundef %3, i64 noundef range(i64 32, 134) %4) unnamed_addr #1 {
  %6 = alloca [512 x i8], align 16
  %7 = alloca i64, align 8
  %8 = alloca ptr, align 8
  call void @llvm.lifetime.start.p0(i64 512, ptr nonnull %6) #7
  call void @llvm.lifetime.start.p0(i64 8, ptr nonnull %7) #7
  store i64 512, ptr %7, align 8, !tbaa !11
  call void @llvm.lifetime.start.p0(i64 8, ptr nonnull %8) #7
  store ptr null, ptr %8, align 8, !tbaa !6
  %9 = load ptr, ptr @testctx, align 8, !tbaa !13
  %.sroa.0.0.insert.ext = zext nneg i16 %0 to i48
  %.sroa.0.0.insert.insert = or disjoint i48 %.sroa.0.0.insert.ext, 4295032832
  %10 = call i32 @OSSL_HPKE_keygen(i48 %.sroa.0.0.insert.insert, ptr noundef nonnull %6, ptr noundef nonnull %7, ptr noundef nonnull %8, ptr noundef %1, i64 noundef %2, ptr noundef %9, ptr noundef null) #7
  %11 = icmp ne i32 %10, 0
  %12 = zext i1 %11 to i32
  %13 = call i32 @test_true(ptr noundef nonnull @.str.31, i32 noundef 1743, ptr noundef nonnull @.str.187, i32 noundef %12) #7
  %.not = icmp eq i32 %13, 0
  br i1 %.not, label %21, label %14

14:                                               ; preds = %5
  %15 = load ptr, ptr %8, align 8, !tbaa !6
  %16 = call i32 @test_ptr(ptr noundef nonnull @.str.31, i32 noundef 1745, ptr noundef nonnull @.str.188, ptr noundef %15) #7
  %.not6 = icmp eq i32 %16, 0
  br i1 %.not6, label %21, label %17

17:                                               ; preds = %14
  %18 = load ptr, ptr %8, align 8, !tbaa !6
  call void @EVP_PKEY_free(ptr noundef %18) #7
  %19 = load i64, ptr %7, align 8, !tbaa !11
  %20 = call i32 @test_mem_eq(ptr noundef nonnull @.str.31, i32 noundef 1748, ptr noundef nonnull @.str.67, ptr noundef nonnull @.str.189, ptr noundef %3, i64 noundef %4, ptr noundef nonnull %6, i64 noundef %19) #7
  %.not7 = icmp ne i32 %20, 0
  %. = zext i1 %.not7 to i32
  br label %21

21:                                               ; preds = %17, %14, %5
  %.0 = phi i32 [ 0, %5 ], [ 0, %14 ], [ %., %17 ]
  call void @llvm.lifetime.end.p0(i64 8, ptr nonnull %8) #7
  call void @llvm.lifetime.end.p0(i64 8, ptr nonnull %7) #7
  call void @llvm.lifetime.end.p0(i64 512, ptr nonnull %6) #7
  ret i32 %.0
}